; Function Attrs: null_pointer_is_valid sspstrong uwtable
define internal fastcc void @proto_mpeg_descriptor_dissect_network_name(ptr noundef %0, i32 noundef %1, i32 noundef range(i32 1, 256) %2, ptr noundef %3) unnamed_addr #1 {
  %5 = alloca i32, align 4
  call void @llvm.lifetime.start.p0(i64 4, ptr nonnull %5) #5
  %6 = call i32 @dvb_analyze_string_charset(ptr noundef %0, i32 noundef %1, i32 noundef %2, ptr noundef nonnull %5)
  %7 = load i32, ptr @hf_mpeg_descr_network_name_encoding, align 4
  %8 = load i32, ptr %5, align 4
  call void @dvb_add_chartbl(ptr noundef %3, i32 noundef %7, ptr noundef %0, i32 noundef %1, i32 noundef %6, i32 noundef %8)
  %9 = load i32, ptr @hf_mpeg_descr_network_name_descriptor, align 4
  %10 = add i32 %6, %1
  %11 = sub i32 %2, %6
  %12 = load i32, ptr %5, align 4
  %13 = call i32 @dvb_enc_to_item_enc(i32 noundef %12)
  %14 = call ptr @proto_tree_add_item(ptr noundef %3, i32 noundef %9, ptr noundef %0, i32 noundef %10, i32 noundef %11, i32 noundef %13)
  call void @llvm.lifetime.end.p0(i64 4, ptr nonnull %5) #5
  ret void
}